target datalayout = "e-m:e-p270:32:32-p271:32:32-p272:64:64-i64:64-i128:128-f80:128-n8:16:32:64-S128"
target triple = "x86_64-pc-linux-gnu"

; Function Attrs: nounwind uwtable
define i64 @pmix_argv_len(ptr noundef %0) #0 {
  %2 = alloca i64, align 8
  %3 = alloca ptr, align 8
  %4 = alloca ptr, align 8
  %5 = alloca i64, align 8
  %6 = alloca i32, align 4
  store ptr %0, ptr %3, align 8, !tbaa !14
  call void @llvm.lifetime.start.p0(i64 8, ptr %4) #7
  call void @llvm.lifetime.start.p0(i64 8, ptr %5) #7
  %7 = load ptr, ptr %3, align 8, !tbaa !14
  %8 = icmp eq ptr null, %7
  br i1 %8, label %9, label %10

9:                                                ; preds = %1
  store i64 0, ptr %2, align 8
  store i32 1, ptr %6, align 4
  br label %29

10:                                               ; preds = %1
  store i64 8, ptr %5, align 8, !tbaa !18
  %11 = load ptr, ptr %3, align 8, !tbaa !14
  store ptr %11, ptr %4, align 8, !tbaa !14
  br label %12

12:                                               ; preds = %24, %10
  %13 = load ptr, ptr %4, align 8, !tbaa !14
  %14 = load ptr, ptr %13, align 8, !tbaa !10
  %15 = icmp ne ptr %14, null
  br i1 %15, label %16, label %27

16:                                               ; preds = %12
  %17 = load ptr, ptr %4, align 8, !tbaa !14
  %18 = load ptr, ptr %17, align 8, !tbaa !10
  %19 = call i64 @strlen(ptr noundef %18) #8
  %20 = add i64 %19, 1
  %21 = add i64 %20, 8
  %22 = load i64, ptr %5, align 8, !tbaa !18
  %23 = add i64 %22, %21
  store i64 %23, ptr %5, align 8, !tbaa !18
  br label %24

24:                                               ; preds = %16
  %25 = load ptr, ptr %4, align 8, !tbaa !14
  %26 = getelementptr inbounds nuw ptr, ptr %25, i32 1
  store ptr %26, ptr %4, align 8, !tbaa !14
  br label %12, !llvm.loop !23

27:                                               ; preds = %12
  %28 = load i64, ptr %5, align 8, !tbaa !18
  store i64 %28, ptr %2, align 8
  store i32 1, ptr %6, align 4
  br label %29

29:                                               ; preds = %27, %9
  call void @llvm.lifetime.end.p0(i64 8, ptr %5) #7
  call void @llvm.lifetime.end.p0(i64 8, ptr %4) #7
  %30 = load i64, ptr %2, align 8
  ret i64 %30
}