; Function Attrs: nofree nounwind memory(read, inaccessiblemem: none) uwtable
define i64 @pmix_argv_len(ptr noundef readonly captures(address_is_null) %0) local_unnamed_addr #6 {
  %2 = icmp eq ptr %0, null
  br i1 %2, label %.loopexit, label %.preheader

.preheader:                                       ; preds = %1
  %3 = load ptr, ptr %0, align 8, !tbaa !10
  %.not11 = icmp eq ptr %3, null
  br i1 %.not11, label %.loopexit, label %.lr.ph

.lr.ph:                                           ; preds = %.preheader, %.lr.ph
  %4 = phi ptr [ %9, %.lr.ph ], [ %3, %.preheader ]
  %.013 = phi i64 [ %7, %.lr.ph ], [ 8, %.preheader ]
  %.0712 = phi ptr [ %8, %.lr.ph ], [ %0, %.preheader ]
  %5 = tail call i64 @strlen(ptr noundef nonnull dereferenceable(1) %4) #11
  %6 = add i64 %.013, 9
  %7 = add i64 %6, %5
  %8 = getelementptr inbounds nuw i8, ptr %.0712, i64 8
  %9 = load ptr, ptr %8, align 8, !tbaa !10
  %.not = icmp eq ptr %9, null
  br i1 %.not, label %.loopexit, label %.lr.ph, !llvm.loop !17

.loopexit:                                        ; preds = %.lr.ph, %.preheader, %1
  %.08 = phi i64 [ 0, %1 ], [ 8, %.preheader ], [ %7, %.lr.ph ]
  ret i64 %.08
}